target datalayout = "e-m:e-p270:32:32-p271:32:32-p272:64:64-i64:64-i128:128-f80:128-n8:16:32:64-S128"
target triple = "x86_64-pc-linux-gnu"

%struct.AVFilterContext = type { ptr, ptr, ptr, ptr, ptr, i32, ptr, ptr, i32, ptr, ptr, i32, i32, ptr, ptr, ptr, ptr, i32, ptr, i32, i32 }
%struct.SSIM360Context = type { ptr, %struct.FFFrameSync, ptr, ptr, i32, [4 x double], [4 x i8], i32, i32, i32, [4 x i8], i64, ptr, i64, i64, [4 x double], double, [4 x ptr], [4 x double], [4 x [256 x double]], i32, i32, i32, i32, float, float, i32, ptr, i32, i32, %struct.Map2D, ptr, [4 x i32], [4 x i32], [4 x i32], [4 x i32], [4 x i32], [4 x [2 x ptr]], [4 x [2 x ptr]], [4 x [2 x float]], ptr }
%struct.FFFrameSync = type { ptr, ptr, i32, %struct.AVRational, i64, ptr, ptr, i32, i32, i8, i8, ptr, i32, i32, i32, i32 }
%struct.AVRational = type { i32, i32 }
%struct.Map2D = type { i32, i32, ptr }
%struct.AVFilterLink = type { ptr, ptr, ptr, ptr, i32, i32, i32, i32, %struct.AVRational, i32, i32, i32, %struct.AVChannelLayout, %struct.AVRational, ptr, i32, %struct.AVFilterFormatsConfig, %struct.AVFilterFormatsConfig }
%struct.AVChannelLayout = type { i32, i32, %union.anon.1, ptr }
%union.anon.1 = type { i64 }
%struct.AVFilterFormatsConfig = type { ptr, ptr, ptr, ptr, ptr }
%struct.AVPixFmtDescriptor = type { ptr, i8, i8, i8, i64, [4 x %struct.AVComponentDescriptor], ptr }
%struct.AVComponentDescriptor = type { i32, i32, i32, i32, i32 }

; Function Attrs: nounwind uwtable
define internal i32 @config_input_ref(ptr noundef %0) #0 {
  %2 = alloca ptr, align 8
  %3 = alloca ptr, align 8
  %4 = alloca ptr, align 8
  %5 = alloca ptr, align 8
  %6 = alloca i32, align 4
  %7 = alloca i32, align 4
  %8 = alloca i32, align 4
  store ptr %0, ptr %2, align 8, !tbaa !56
  call void @llvm.lifetime.start.p0(i64 8, ptr %3) #14
  %9 = load ptr, ptr %2, align 8, !tbaa !56
  %10 = getelementptr inbounds nuw %struct.AVFilterLink, ptr %9, i32 0, i32 5
  %11 = load i32, ptr %10, align 4, !tbaa !58
  %12 = call ptr @av_pix_fmt_desc_get(i32 noundef %11)
  store ptr %12, ptr %3, align 8, !tbaa !65
  call void @llvm.lifetime.start.p0(i64 8, ptr %4) #14
  %13 = load ptr, ptr %2, align 8, !tbaa !56
  %14 = getelementptr inbounds nuw %struct.AVFilterLink, ptr %13, i32 0, i32 2
  %15 = load ptr, ptr %14, align 8, !tbaa !67
  store ptr %15, ptr %4, align 8, !tbaa !4
  call void @llvm.lifetime.start.p0(i64 8, ptr %5) #14
  %16 = load ptr, ptr %4, align 8, !tbaa !4
  %17 = getelementptr inbounds nuw %struct.AVFilterContext, ptr %16, i32 0, i32 9
  %18 = load ptr, ptr %17, align 8, !tbaa !9
  store ptr %18, ptr %5, align 8, !tbaa !22
  call void @llvm.lifetime.start.p0(i64 4, ptr %6) #14
  store i32 0, ptr %6, align 4, !tbaa !38
  %19 = load ptr, ptr %3, align 8, !tbaa !65
  %20 = getelementptr inbounds nuw %struct.AVPixFmtDescriptor, ptr %19, i32 0, i32 1
  %21 = load i8, ptr %20, align 8, !tbaa !77
  %22 = zext i8 %21 to i32
  %23 = load ptr, ptr %5, align 8, !tbaa !22
  %24 = getelementptr inbounds nuw %struct.SSIM360Context, ptr %23, i32 0, i32 4
  store i32 %22, ptr %24, align 8, !tbaa !46
  %25 = load ptr, ptr %2, align 8, !tbaa !56
  %26 = getelementptr inbounds nuw %struct.AVFilterLink, ptr %25, i32 0, i32 7
  %27 = load i32, ptr %26, align 4, !tbaa !68
  %28 = load ptr, ptr %5, align 8, !tbaa !22
  %29 = getelementptr inbounds nuw %struct.SSIM360Context, ptr %28, i32 0, i32 33
  %30 = getelementptr inbounds [4 x i32], ptr %29, i64 0, i64 0
  store i32 %27, ptr %30, align 8, !tbaa !38
  %31 = load ptr, ptr %2, align 8, !tbaa !56
  %32 = getelementptr inbounds nuw %struct.AVFilterLink, ptr %31, i32 0, i32 7
  %33 = load i32, ptr %32, align 4, !tbaa !68
  %34 = load ptr, ptr %5, align 8, !tbaa !22
  %35 = getelementptr inbounds nuw %struct.SSIM360Context, ptr %34, i32 0, i32 33
  %36 = getelementptr inbounds [4 x i32], ptr %35, i64 0, i64 3
  store i32 %33, ptr %36, align 4, !tbaa !38
  %37 = load ptr, ptr %3, align 8, !tbaa !65
  %38 = getelementptr inbounds nuw %struct.AVPixFmtDescriptor, ptr %37, i32 0, i32 3
  %39 = load i8, ptr %38, align 2, !tbaa !69
  %40 = call i1 @llvm.is.constant.i8(i8 %39)
  br i1 %40, label %52, label %41

41:                                               ; preds = %1
  %42 = load ptr, ptr %2, align 8, !tbaa !56
  %43 = getelementptr inbounds nuw %struct.AVFilterLink, ptr %42, i32 0, i32 7
  %44 = load i32, ptr %43, align 4, !tbaa !68
  %45 = sub nsw i32 0, %44
  %46 = load ptr, ptr %3, align 8, !tbaa !65
  %47 = getelementptr inbounds nuw %struct.AVPixFmtDescriptor, ptr %46, i32 0, i32 3
  %48 = load i8, ptr %47, align 2, !tbaa !69
  %49 = zext i8 %48 to i32
  %50 = ashr i32 %45, %49
  %51 = sub nsw i32 0, %50
  br label %68

52:                                               ; preds = %1
  %53 = load ptr, ptr %2, align 8, !tbaa !56
  %54 = getelementptr inbounds nuw %struct.AVFilterLink, ptr %53, i32 0, i32 7
  %55 = load i32, ptr %54, align 4, !tbaa !68
  %56 = load ptr, ptr %3, align 8, !tbaa !65
  %57 = getelementptr inbounds nuw %struct.AVPixFmtDescriptor, ptr %56, i32 0, i32 3
  %58 = load i8, ptr %57, align 2, !tbaa !69
  %59 = zext i8 %58 to i32
  %60 = shl i32 1, %59
  %61 = add nsw i32 %55, %60
  %62 = sub nsw i32 %61, 1
  %63 = load ptr, ptr %3, align 8, !tbaa !65
  %64 = getelementptr inbounds nuw %struct.AVPixFmtDescriptor, ptr %63, i32 0, i32 3
  %65 = load i8, ptr %64, align 2, !tbaa !69
  %66 = zext i8 %65 to i32
  %67 = ashr i32 %62, %66
  br label %68

68:                                               ; preds = %52, %41
  %69 = phi i32 [ %51, %41 ], [ %67, %52 ]
  %70 = load ptr, ptr %5, align 8, !tbaa !22
  %71 = getelementptr inbounds nuw %struct.SSIM360Context, ptr %70, i32 0, i32 33
  %72 = getelementptr inbounds [4 x i32], ptr %71, i64 0, i64 1
  store i32 %69, ptr %72, align 4, !tbaa !38
  %73 = load ptr, ptr %3, align 8, !tbaa !65
  %74 = getelementptr inbounds nuw %struct.AVPixFmtDescriptor, ptr %73, i32 0, i32 3
  %75 = load i8, ptr %74, align 2, !tbaa !69
  %76 = call i1 @llvm.is.constant.i8(i8 %75)
  br i1 %76, label %88, label %77

77:                                               ; preds = %68
  %78 = load ptr, ptr %2, align 8, !tbaa !56
  %79 = getelementptr inbounds nuw %struct.AVFilterLink, ptr %78, i32 0, i32 7
  %80 = load i32, ptr %79, align 4, !tbaa !68
  %81 = sub nsw i32 0, %80
  %82 = load ptr, ptr %3, align 8, !tbaa !65
  %83 = getelementptr inbounds nuw %struct.AVPixFmtDescriptor, ptr %82, i32 0, i32 3
  %84 = load i8, ptr %83, align 2, !tbaa !69
  %85 = zext i8 %84 to i32
  %86 = ashr i32 %81, %85
  %87 = sub nsw i32 0, %86
  br label %104

88:                                               ; preds = %68
  %89 = load ptr, ptr %2, align 8, !tbaa !56
  %90 = getelementptr inbounds nuw %struct.AVFilterLink, ptr %89, i32 0, i32 7
  %91 = load i32, ptr %90, align 4, !tbaa !68
  %92 = load ptr, ptr %3, align 8, !tbaa !65
  %93 = getelementptr inbounds nuw %struct.AVPixFmtDescriptor, ptr %92, i32 0, i32 3
  %94 = load i8, ptr %93, align 2, !tbaa !69
  %95 = zext i8 %94 to i32
  %96 = shl i32 1, %95
  %97 = add nsw i32 %91, %96
  %98 = sub nsw i32 %97, 1
  %99 = load ptr, ptr %3, align 8, !tbaa !65
  %100 = getelementptr inbounds nuw %struct.AVPixFmtDescriptor, ptr %99, i32 0, i32 3
  %101 = load i8, ptr %100, align 2, !tbaa !69
  %102 = zext i8 %101 to i32
  %103 = ashr i32 %98, %102
  br label %104

104:                                              ; preds = %88, %77
  %105 = phi i32 [ %87, %77 ], [ %103, %88 ]
  %106 = load ptr, ptr %5, align 8, !tbaa !22
  %107 = getelementptr inbounds nuw %struct.SSIM360Context, ptr %106, i32 0, i32 33
  %108 = getelementptr inbounds [4 x i32], ptr %107, i64 0, i64 2
  store i32 %105, ptr %108, align 8, !tbaa !38
  %109 = load ptr, ptr %2, align 8, !tbaa !56
  %110 = getelementptr inbounds nuw %struct.AVFilterLink, ptr %109, i32 0, i32 6
  %111 = load i32, ptr %110, align 8, !tbaa !71
  %112 = load ptr, ptr %5, align 8, !tbaa !22
  %113 = getelementptr inbounds nuw %struct.SSIM360Context, ptr %112, i32 0, i32 32
  %114 = getelementptr inbounds [4 x i32], ptr %113, i64 0, i64 0
  store i32 %111, ptr %114, align 8, !tbaa !38
  %115 = load ptr, ptr %2, align 8, !tbaa !56
  %116 = getelementptr inbounds nuw %struct.AVFilterLink, ptr %115, i32 0, i32 6
  %117 = load i32, ptr %116, align 8, !tbaa !71
  %118 = load ptr, ptr %5, align 8, !tbaa !22
  %119 = getelementptr inbounds nuw %struct.SSIM360Context, ptr %118, i32 0, i32 32
  %120 = getelementptr inbounds [4 x i32], ptr %119, i64 0, i64 3
  store i32 %117, ptr %120, align 4, !tbaa !38
  %121 = load ptr, ptr %3, align 8, !tbaa !65
  %122 = getelementptr inbounds nuw %struct.AVPixFmtDescriptor, ptr %121, i32 0, i32 2
  %123 = load i8, ptr %122, align 1, !tbaa !72
  %124 = call i1 @llvm.is.constant.i8(i8 %123)
  br i1 %124, label %136, label %125

125:                                              ; preds = %104
  %126 = load ptr, ptr %2, align 8, !tbaa !56
  %127 = getelementptr inbounds nuw %struct.AVFilterLink, ptr %126, i32 0, i32 6
  %128 = load i32, ptr %127, align 8, !tbaa !71
  %129 = sub nsw i32 0, %128
  %130 = load ptr, ptr %3, align 8, !tbaa !65
  %131 = getelementptr inbounds nuw %struct.AVPixFmtDescriptor, ptr %130, i32 0, i32 2
  %132 = load i8, ptr %131, align 1, !tbaa !72
  %133 = zext i8 %132 to i32
  %134 = ashr i32 %129, %133
  %135 = sub nsw i32 0, %134
  br label %152

136:                                              ; preds = %104
  %137 = load ptr, ptr %2, align 8, !tbaa !56
  %138 = getelementptr inbounds nuw %struct.AVFilterLink, ptr %137, i32 0, i32 6
  %139 = load i32, ptr %138, align 8, !tbaa !71
  %140 = load ptr, ptr %3, align 8, !tbaa !65
  %141 = getelementptr inbounds nuw %struct.AVPixFmtDescriptor, ptr %140, i32 0, i32 2
  %142 = load i8, ptr %141, align 1, !tbaa !72
  %143 = zext i8 %142 to i32
  %144 = shl i32 1, %143
  %145 = add nsw i32 %139, %144
  %146 = sub nsw i32 %145, 1
  %147 = load ptr, ptr %3, align 8, !tbaa !65
  %148 = getelementptr inbounds nuw %struct.AVPixFmtDescriptor, ptr %147, i32 0, i32 2
  %149 = load i8, ptr %148, align 1, !tbaa !72
  %150 = zext i8 %149 to i32
  %151 = ashr i32 %146, %150
  br label %152

152:                                              ; preds = %136, %125
  %153 = phi i32 [ %135, %125 ], [ %151, %136 ]
  %154 = load ptr, ptr %5, align 8, !tbaa !22
  %155 = getelementptr inbounds nuw %struct.SSIM360Context, ptr %154, i32 0, i32 32
  %156 = getelementptr inbounds [4 x i32], ptr %155, i64 0, i64 1
  store i32 %153, ptr %156, align 4, !tbaa !38
  %157 = load ptr, ptr %3, align 8, !tbaa !65
  %158 = getelementptr inbounds nuw %struct.AVPixFmtDescriptor, ptr %157, i32 0, i32 2
  %159 = load i8, ptr %158, align 1, !tbaa !72
  %160 = call i1 @llvm.is.constant.i8(i8 %159)
  br i1 %160, label %172, label %161

161:                                              ; preds = %152
  %162 = load ptr, ptr %2, align 8, !tbaa !56
  %163 = getelementptr inbounds nuw %struct.AVFilterLink, ptr %162, i32 0, i32 6
  %164 = load i32, ptr %163, align 8, !tbaa !71
  %165 = sub nsw i32 0, %164
  %166 = load ptr, ptr %3, align 8, !tbaa !65
  %167 = getelementptr inbounds nuw %struct.AVPixFmtDescriptor, ptr %166, i32 0, i32 2
  %168 = load i8, ptr %167, align 1, !tbaa !72
  %169 = zext i8 %168 to i32
  %170 = ashr i32 %165, %169
  %171 = sub nsw i32 0, %170
  br label %188

172:                                              ; preds = %152
  %173 = load ptr, ptr %2, align 8, !tbaa !56
  %174 = getelementptr inbounds nuw %struct.AVFilterLink, ptr %173, i32 0, i32 6
  %175 = load i32, ptr %174, align 8, !tbaa !71
  %176 = load ptr, ptr %3, align 8, !tbaa !65
  %177 = getelementptr inbounds nuw %struct.AVPixFmtDescriptor, ptr %176, i32 0, i32 2
  %178 = load i8, ptr %177, align 1, !tbaa !72
  %179 = zext i8 %178 to i32
  %180 = shl i32 1, %179
  %181 = add nsw i32 %175, %180
  %182 = sub nsw i32 %181, 1
  %183 = load ptr, ptr %3, align 8, !tbaa !65
  %184 = getelementptr inbounds nuw %struct.AVPixFmtDescriptor, ptr %183, i32 0, i32 2
  %185 = load i8, ptr %184, align 1, !tbaa !72
  %186 = zext i8 %185 to i32
  %187 = ashr i32 %182, %186
  br label %188

188:                                              ; preds = %172, %161
  %189 = phi i32 [ %171, %161 ], [ %187, %172 ]
  %190 = load ptr, ptr %5, align 8, !tbaa !22
  %191 = getelementptr inbounds nuw %struct.SSIM360Context, ptr %190, i32 0, i32 32
  %192 = getelementptr inbounds [4 x i32], ptr %191, i64 0, i64 2
  store i32 %189, ptr %192, align 8, !tbaa !38
  %193 = load ptr, ptr %5, align 8, !tbaa !22
  %194 = getelementptr inbounds nuw %struct.SSIM360Context, ptr %193, i32 0, i32 10
  %195 = getelementptr inbounds [4 x i8], ptr %194, i64 0, i64 0
  %196 = load ptr, ptr %2, align 8, !tbaa !56
  %197 = getelementptr inbounds nuw %struct.AVFilterLink, ptr %196, i32 0, i32 5
  %198 = load i32, ptr %197, align 4, !tbaa !58
  %199 = call i32 @ff_fill_rgba_map(ptr noundef %195, i32 noundef %198)
  %200 = icmp sge i32 %199, 0
  %201 = zext i1 %200 to i32
  %202 = load ptr, ptr %5, align 8, !tbaa !22
  %203 = getelementptr inbounds nuw %struct.SSIM360Context, ptr %202, i32 0, i32 9
  store i32 %201, ptr %203, align 4, !tbaa !47
  %204 = load ptr, ptr %5, align 8, !tbaa !22
  %205 = getelementptr inbounds nuw %struct.SSIM360Context, ptr %204, i32 0, i32 9
  %206 = load i32, ptr %205, align 4, !tbaa !47
  %207 = icmp ne i32 %206, 0
  %208 = select i1 %207, i32 82, i32 89
  %209 = trunc i32 %208 to i8
  %210 = load ptr, ptr %5, align 8, !tbaa !22
  %211 = getelementptr inbounds nuw %struct.SSIM360Context, ptr %210, i32 0, i32 6
  %212 = getelementptr inbounds [4 x i8], ptr %211, i64 0, i64 0
  store i8 %209, ptr %212, align 8, !tbaa !45
  %213 = load ptr, ptr %5, align 8, !tbaa !22
  %214 = getelementptr inbounds nuw %struct.SSIM360Context, ptr %213, i32 0, i32 9
  %215 = load i32, ptr %214, align 4, !tbaa !47
  %216 = icmp ne i32 %215, 0
  %217 = select i1 %216, i32 71, i32 85
  %218 = trunc i32 %217 to i8
  %219 = load ptr, ptr %5, align 8, !tbaa !22
  %220 = getelementptr inbounds nuw %struct.SSIM360Context, ptr %219, i32 0, i32 6
  %221 = getelementptr inbounds [4 x i8], ptr %220, i64 0, i64 1
  store i8 %218, ptr %221, align 1, !tbaa !45
  %222 = load ptr, ptr %5, align 8, !tbaa !22
  %223 = getelementptr inbounds nuw %struct.SSIM360Context, ptr %222, i32 0, i32 9
  %224 = load i32, ptr %223, align 4, !tbaa !47
  %225 = icmp ne i32 %224, 0
  %226 = select i1 %225, i32 66, i32 86
  %227 = trunc i32 %226 to i8
  %228 = load ptr, ptr %5, align 8, !tbaa !22
  %229 = getelementptr inbounds nuw %struct.SSIM360Context, ptr %228, i32 0, i32 6
  %230 = getelementptr inbounds [4 x i8], ptr %229, i64 0, i64 2
  store i8 %227, ptr %230, align 2, !tbaa !45
  %231 = load ptr, ptr %5, align 8, !tbaa !22
  %232 = getelementptr inbounds nuw %struct.SSIM360Context, ptr %231, i32 0, i32 6
  %233 = getelementptr inbounds [4 x i8], ptr %232, i64 0, i64 3
  store i8 65, ptr %233, align 1, !tbaa !45
  %234 = load ptr, ptr %5, align 8, !tbaa !22
  %235 = getelementptr inbounds nuw %struct.SSIM360Context, ptr %234, i32 0, i32 9
  %236 = load i32, ptr %235, align 4, !tbaa !47
  %237 = icmp ne i32 %236, 0
  br i1 %237, label %246, label %238

238:                                              ; preds = %188
  %239 = load ptr, ptr %5, align 8, !tbaa !22
  %240 = getelementptr inbounds nuw %struct.SSIM360Context, ptr %239, i32 0, i32 8
  %241 = load i32, ptr %240, align 8, !tbaa !78
  %242 = icmp ne i32 %241, 0
  br i1 %242, label %246, label %243

243:                                              ; preds = %238
  %244 = load ptr, ptr %5, align 8, !tbaa !22
  %245 = getelementptr inbounds nuw %struct.SSIM360Context, ptr %244, i32 0, i32 4
  store i32 1, ptr %245, align 8, !tbaa !46
  br label %246

246:                                              ; preds = %243, %238, %188
  %247 = load ptr, ptr %3, align 8, !tbaa !65
  %248 = getelementptr inbounds nuw %struct.AVPixFmtDescriptor, ptr %247, i32 0, i32 5
  %249 = getelementptr inbounds [4 x %struct.AVComponentDescriptor], ptr %248, i64 0, i64 0
  %250 = getelementptr inbounds nuw %struct.AVComponentDescriptor, ptr %249, i32 0, i32 4
  %251 = load i32, ptr %250, align 8, !tbaa !79
  %252 = shl i32 1, %251
  %253 = sub nsw i32 %252, 1
  %254 = load ptr, ptr %5, align 8, !tbaa !22
  %255 = getelementptr inbounds nuw %struct.SSIM360Context, ptr %254, i32 0, i32 7
  store i32 %253, ptr %255, align 4, !tbaa !81
  %256 = load ptr, ptr %3, align 8, !tbaa !65
  %257 = getelementptr inbounds nuw %struct.AVPixFmtDescriptor, ptr %256, i32 0, i32 5
  %258 = getelementptr inbounds [4 x %struct.AVComponentDescriptor], ptr %257, i64 0, i64 0
  %259 = getelementptr inbounds nuw %struct.AVComponentDescriptor, ptr %258, i32 0, i32 4
  %260 = load i32, ptr %259, align 8, !tbaa !79
  %261 = icmp sgt i32 %260, 8
  %262 = select i1 %261, ptr @ssim360_plane_16bit, ptr @ssim360_plane_8bit
  %263 = load ptr, ptr %5, align 8, !tbaa !22
  %264 = getelementptr inbounds nuw %struct.SSIM360Context, ptr %263, i32 0, i32 40
  store ptr %262, ptr %264, align 8, !tbaa !82
  call void @llvm.lifetime.start.p0(i64 4, ptr %7) #14
  store i32 0, ptr %7, align 4, !tbaa !38
  br label %265

265:                                              ; preds = %288, %246
  %266 = load i32, ptr %7, align 4, !tbaa !38
  %267 = load ptr, ptr %5, align 8, !tbaa !22
  %268 = getelementptr inbounds nuw %struct.SSIM360Context, ptr %267, i32 0, i32 4
  %269 = load i32, ptr %268, align 8, !tbaa !46
  %270 = icmp slt i32 %266, %269
  br i1 %270, label %272, label %271

271:                                              ; preds = %265
  call void @llvm.lifetime.end.p0(i64 4, ptr %7) #14
  br label %291

272:                                              ; preds = %265
  %273 = load ptr, ptr %5, align 8, !tbaa !22
  %274 = getelementptr inbounds nuw %struct.SSIM360Context, ptr %273, i32 0, i32 33
  %275 = load i32, ptr %7, align 4, !tbaa !38
  %276 = sext i32 %275 to i64
  %277 = getelementptr inbounds [4 x i32], ptr %274, i64 0, i64 %276
  %278 = load i32, ptr %277, align 4, !tbaa !38
  %279 = load ptr, ptr %5, align 8, !tbaa !22
  %280 = getelementptr inbounds nuw %struct.SSIM360Context, ptr %279, i32 0, i32 32
  %281 = load i32, ptr %7, align 4, !tbaa !38
  %282 = sext i32 %281 to i64
  %283 = getelementptr inbounds [4 x i32], ptr %280, i64 0, i64 %282
  %284 = load i32, ptr %283, align 4, !tbaa !38
  %285 = mul nsw i32 %278, %284
  %286 = load i32, ptr %6, align 4, !tbaa !38
  %287 = add nsw i32 %286, %285
  store i32 %287, ptr %6, align 4, !tbaa !38
  br label %288

288:                                              ; preds = %272
  %289 = load i32, ptr %7, align 4, !tbaa !38
  %290 = add nsw i32 %289, 1
  store i32 %290, ptr %7, align 4, !tbaa !38
  br label %265, !llvm.loop !83

291:                                              ; preds = %271
  call void @llvm.lifetime.start.p0(i64 4, ptr %8) #14
  store i32 0, ptr %8, align 4, !tbaa !38
  br label %292

292:                                              ; preds = %323, %291
  %293 = load i32, ptr %8, align 4, !tbaa !38
  %294 = load ptr, ptr %5, align 8, !tbaa !22
  %295 = getelementptr inbounds nuw %struct.SSIM360Context, ptr %294, i32 0, i32 4
  %296 = load i32, ptr %295, align 8, !tbaa !46
  %297 = icmp slt i32 %293, %296
  br i1 %297, label %299, label %298

298:                                              ; preds = %292
  call void @llvm.lifetime.end.p0(i64 4, ptr %8) #14
  br label %326

299:                                              ; preds = %292
  %300 = load ptr, ptr %5, align 8, !tbaa !22
  %301 = getelementptr inbounds nuw %struct.SSIM360Context, ptr %300, i32 0, i32 33
  %302 = load i32, ptr %8, align 4, !tbaa !38
  %303 = sext i32 %302 to i64
  %304 = getelementptr inbounds [4 x i32], ptr %301, i64 0, i64 %303
  %305 = load i32, ptr %304, align 4, !tbaa !38
  %306 = sitofp i32 %305 to double
  %307 = load ptr, ptr %5, align 8, !tbaa !22
  %308 = getelementptr inbounds nuw %struct.SSIM360Context, ptr %307, i32 0, i32 32
  %309 = load i32, ptr %8, align 4, !tbaa !38
  %310 = sext i32 %309 to i64
  %311 = getelementptr inbounds [4 x i32], ptr %308, i64 0, i64 %310
  %312 = load i32, ptr %311, align 4, !tbaa !38
  %313 = sitofp i32 %312 to double
  %314 = fmul nsz double %306, %313
  %315 = load i32, ptr %6, align 4, !tbaa !38
  %316 = sitofp i32 %315 to double
  %317 = fdiv nsz double %314, %316
  %318 = load ptr, ptr %5, align 8, !tbaa !22
  %319 = getelementptr inbounds nuw %struct.SSIM360Context, ptr %318, i32 0, i32 5
  %320 = load i32, ptr %8, align 4, !tbaa !38
  %321 = sext i32 %320 to i64
  %322 = getelementptr inbounds [4 x double], ptr %319, i64 0, i64 %321
  store double %317, ptr %322, align 8, !tbaa !48
  br label %323

323:                                              ; preds = %299
  %324 = load i32, ptr %8, align 4, !tbaa !38
  %325 = add nsw i32 %324, 1
  store i32 %325, ptr %8, align 4, !tbaa !38
  br label %292, !llvm.loop !84

326:                                              ; preds = %298
  call void @llvm.lifetime.end.p0(i64 4, ptr %6) #14
  call void @llvm.lifetime.end.p0(i64 8, ptr %5) #14
  call void @llvm.lifetime.end.p0(i64 8, ptr %4) #14
  call void @llvm.lifetime.end.p0(i64 8, ptr %3) #14
  ret i32 0
}