; Function Attrs: nounwind uwtable
define internal noundef i32 @config_input_ref(ptr noundef readonly captures(none) %0) #0 {
  %2 = getelementptr inbounds nuw i8, ptr %0, i64 36
  %3 = load i32, ptr %2, align 4, !tbaa !62
  %4 = tail call ptr @av_pix_fmt_desc_get(i32 noundef %3) #15
  %5 = getelementptr inbounds nuw i8, ptr %0, i64 16
  %6 = load ptr, ptr %5, align 8, !tbaa !69
  %7 = getelementptr inbounds nuw i8, ptr %6, i64 72
  %8 = load ptr, ptr %7, align 8, !tbaa !4
  %9 = getelementptr inbounds nuw i8, ptr %4, i64 8
  %10 = load i8, ptr %9, align 8, !tbaa !79
  %11 = zext i8 %10 to i32
  %12 = getelementptr inbounds nuw i8, ptr %8, i64 120
  store i32 %11, ptr %12, align 8, !tbaa !55
  %13 = getelementptr inbounds nuw i8, ptr %0, i64 44
  %14 = load i32, ptr %13, align 4, !tbaa !70
  %15 = getelementptr inbounds nuw i8, ptr %8, i64 8600
  store i32 %14, ptr %15, align 8, !tbaa !35
  %16 = getelementptr inbounds nuw i8, ptr %8, i64 8612
  store i32 %14, ptr %16, align 4, !tbaa !35
  %17 = getelementptr inbounds nuw i8, ptr %4, i64 10
  %18 = load i8, ptr %17, align 2, !tbaa !71
  %19 = load i32, ptr %13, align 4, !tbaa !70
  %20 = sub nsw i32 0, %19
  %21 = zext nneg i8 %18 to i32
  %22 = ashr i32 %20, %21
  %23 = sub nsw i32 0, %22
  %24 = getelementptr inbounds nuw i8, ptr %8, i64 8604
  store i32 %23, ptr %24, align 4, !tbaa !35
  %25 = load i32, ptr %13, align 4, !tbaa !70
  %26 = sub nsw i32 0, %25
  %27 = zext nneg i8 %18 to i32
  %28 = ashr i32 %26, %27
  %29 = sub nsw i32 0, %28
  %30 = getelementptr inbounds nuw i8, ptr %8, i64 8608
  store i32 %29, ptr %30, align 8, !tbaa !35
  %31 = getelementptr inbounds nuw i8, ptr %0, i64 40
  %32 = load i32, ptr %31, align 8, !tbaa !73
  %33 = getelementptr inbounds nuw i8, ptr %8, i64 8584
  store i32 %32, ptr %33, align 8, !tbaa !35
  %34 = getelementptr inbounds nuw i8, ptr %8, i64 8596
  store i32 %32, ptr %34, align 4, !tbaa !35
  %35 = getelementptr inbounds nuw i8, ptr %4, i64 9
  %36 = load i8, ptr %35, align 1, !tbaa !74
  %37 = load i32, ptr %31, align 8, !tbaa !73
  %38 = sub nsw i32 0, %37
  %39 = zext nneg i8 %36 to i32
  %40 = ashr i32 %38, %39
  %41 = sub nsw i32 0, %40
  %42 = getelementptr inbounds nuw i8, ptr %8, i64 8588
  store i32 %41, ptr %42, align 4, !tbaa !35
  %43 = load i32, ptr %31, align 8, !tbaa !73
  %44 = sub nsw i32 0, %43
  %45 = zext nneg i8 %36 to i32
  %46 = ashr i32 %44, %45
  %47 = sub nsw i32 0, %46
  %48 = getelementptr inbounds nuw i8, ptr %8, i64 8592
  store i32 %47, ptr %48, align 8, !tbaa !35
  %49 = getelementptr inbounds nuw i8, ptr %8, i64 176
  %50 = load i32, ptr %2, align 4, !tbaa !62
  %51 = tail call i32 @ff_fill_rgba_map(ptr noundef nonnull %49, i32 noundef %50) #15
  %52 = icmp sgt i32 %51, -1
  %53 = zext i1 %52 to i32
  %54 = getelementptr inbounds nuw i8, ptr %8, i64 172
  store i32 %53, ptr %54, align 4, !tbaa !57
  %55 = select i1 %52, i8 82, i8 89
  %56 = getelementptr inbounds nuw i8, ptr %8, i64 160
  store i8 %55, ptr %56, align 8, !tbaa !42
  %57 = select i1 %52, i8 71, i8 85
  %58 = getelementptr inbounds nuw i8, ptr %8, i64 161
  store i8 %57, ptr %58, align 1, !tbaa !42
  %59 = select i1 %52, i8 66, i8 86
  %60 = getelementptr inbounds nuw i8, ptr %8, i64 162
  store i8 %59, ptr %60, align 2, !tbaa !42
  %61 = getelementptr inbounds nuw i8, ptr %8, i64 163
  store i8 65, ptr %61, align 1, !tbaa !42
  br i1 %52, label %66, label %62

62:                                               ; preds = %1
  %63 = getelementptr inbounds nuw i8, ptr %8, i64 168
  %64 = load i32, ptr %63, align 8, !tbaa !80
  %.not78 = icmp eq i32 %64, 0
  br i1 %.not78, label %65, label %66

65:                                               ; preds = %62
  store i32 1, ptr %12, align 8, !tbaa !55
  br label %66

66:                                               ; preds = %65, %62, %1
  %67 = getelementptr inbounds nuw i8, ptr %4, i64 40
  %68 = load i32, ptr %67, align 8, !tbaa !81
  %notmask = shl nsw i32 -1, %68
  %69 = xor i32 %notmask, -1
  %70 = getelementptr inbounds nuw i8, ptr %8, i64 164
  store i32 %69, ptr %70, align 4, !tbaa !83
  %71 = icmp sgt i32 %68, 8
  %72 = select i1 %71, ptr @ssim360_plane_16bit, ptr @ssim360_plane_8bit
  %73 = getelementptr inbounds nuw i8, ptr %8, i64 8824
  store ptr %72, ptr %73, align 8, !tbaa !84
  %74 = load i32, ptr %12, align 8, !tbaa !55
  %75 = icmp sgt i32 %74, 0
  br i1 %75, label %.lr.ph.preheader, label %._crit_edge

.lr.ph.preheader:                                 ; preds = %66
  %wide.trip.count = zext nneg i32 %74 to i64
  br label %.lr.ph

.lr.ph83:                                         ; preds = %.lr.ph
  %76 = sitofp i32 %83 to double
  %77 = getelementptr inbounds nuw i8, ptr %8, i64 128
  %wide.trip.count92 = zext nneg i32 %74 to i64
  br label %84

.lr.ph:                                           ; preds = %.lr.ph.preheader, %.lr.ph
  %indvars.iv = phi i64 [ 0, %.lr.ph.preheader ], [ %indvars.iv.next, %.lr.ph ]
  %.07679 = phi i32 [ 0, %.lr.ph.preheader ], [ %83, %.lr.ph ]
  %78 = getelementptr inbounds nuw [4 x i32], ptr %15, i64 0, i64 %indvars.iv
  %79 = load i32, ptr %78, align 4, !tbaa !35
  %80 = getelementptr inbounds nuw [4 x i32], ptr %33, i64 0, i64 %indvars.iv
  %81 = load i32, ptr %80, align 4, !tbaa !35
  %82 = mul nsw i32 %81, %79
  %83 = add nsw i32 %82, %.07679
  %indvars.iv.next = add nuw nsw i64 %indvars.iv, 1
  %exitcond.not = icmp eq i64 %indvars.iv.next, %wide.trip.count
  br i1 %exitcond.not, label %.lr.ph83, label %.lr.ph, !llvm.loop !85

._crit_edge:                                      ; preds = %84, %66
  ret i32 0

84:                                               ; preds = %.lr.ph83, %84
  %indvars.iv89 = phi i64 [ 0, %.lr.ph83 ], [ %indvars.iv.next90, %84 ]
  %85 = getelementptr inbounds nuw [4 x i32], ptr %15, i64 0, i64 %indvars.iv89
  %86 = load i32, ptr %85, align 4, !tbaa !35
  %87 = sitofp i32 %86 to double
  %88 = getelementptr inbounds nuw [4 x i32], ptr %33, i64 0, i64 %indvars.iv89
  %89 = load i32, ptr %88, align 4, !tbaa !35
  %90 = sitofp i32 %89 to double
  %91 = fmul nsz double %87, %90
  %92 = fdiv nsz double %91, %76
  %93 = getelementptr inbounds nuw [4 x double], ptr %77, i64 0, i64 %indvars.iv89
  store double %92, ptr %93, align 8, !tbaa !48
  %indvars.iv.next90 = add nuw nsw i64 %indvars.iv89, 1
  %exitcond93.not = icmp eq i64 %indvars.iv.next90, %wide.trip.count92
  br i1 %exitcond93.not, label %._crit_edge, label %84, !llvm.loop !86
}